target datalayout = "e-m:e-p270:32:32-p271:32:32-p272:64:64-i64:64-i128:128-f80:128-n8:16:32:64-S128"
target triple = "x86_64-pc-linux-gnu"

@.str.1 = private unnamed_addr constant [101 x i8] c"generated/home/dtcxzyw/WorkSpace/Projects/compilers/llvm-opt-benchmark/bench/hdf5/hdf5/src/H5Gname.c\00", align 1
@__func__.H5G_normalize = private unnamed_addr constant [14 x i8] c"H5G_normalize\00", align 1
@H5E_RESOURCE_g = external global i64, align 8
@H5E_NOSPACE_g = external global i64, align 8
@.str.2 = private unnamed_addr constant [47 x i8] c"memory allocation failed for normalized string\00", align 1

; Function Attrs: nounwind uwtable
define ptr @H5G_normalize(ptr noundef %0) #0 {
  %2 = alloca ptr, align 8
  %3 = alloca ptr, align 8
  %4 = alloca i64, align 8
  %5 = alloca i64, align 8
  %6 = alloca i32, align 4
  %7 = alloca ptr, align 8
  %8 = alloca i8, align 1
  store ptr %0, ptr %2, align 8
  store ptr null, ptr %7, align 8
  store i8 0, ptr %8, align 1
  %9 = load ptr, ptr %2, align 8
  %10 = call noalias ptr @H5MM_strdup(ptr noundef %9)
  store ptr %10, ptr %3, align 8
  %11 = icmp eq ptr null, %10
  br i1 %11, label %12, label %27

12:                                               ; preds = %1
  br label %13

13:                                               ; preds = %12
  br label %14

14:                                               ; preds = %13
  br label %15

15:                                               ; preds = %14
  %16 = load i64, ptr @H5E_RESOURCE_g, align 8
  %17 = load i64, ptr @H5E_NOSPACE_g, align 8
  %18 = call i32 (ptr, ptr, i32, i64, i64, ptr, ...) @H5E_printf_stack(ptr noundef @.str.1, ptr noundef @__func__.H5G_normalize, i32 noundef 149, i64 noundef %16, i64 noundef %17, ptr noundef @.str.2)
  br label %19

19:                                               ; preds = %15
  store i8 1, ptr %8, align 1
  %20 = load i8, ptr %8, align 1
  %21 = trunc i8 %20 to i1
  %22 = zext i1 %21 to i8
  store i8 %22, ptr %8, align 1
  br label %23

23:                                               ; preds = %19
  br label %24

24:                                               ; preds = %23
  store ptr null, ptr %7, align 8
  br label %84

25:                                               ; No predecessors!
  br label %26

26:                                               ; preds = %25
  br label %27

27:                                               ; preds = %26, %1
  store i64 0, ptr %5, align 8
  store i64 0, ptr %4, align 8
  store i32 0, ptr %6, align 4
  br label %28

28:                                               ; preds = %65, %27
  %29 = load ptr, ptr %2, align 8
  %30 = load i64, ptr %4, align 8
  %31 = getelementptr inbounds i8, ptr %29, i64 %30
  %32 = load i8, ptr %31, align 1
  %33 = sext i8 %32 to i32
  %34 = icmp ne i32 %33, 0
  br i1 %34, label %35, label %68

35:                                               ; preds = %28
  %36 = load ptr, ptr %2, align 8
  %37 = load i64, ptr %4, align 8
  %38 = getelementptr inbounds i8, ptr %36, i64 %37
  %39 = load i8, ptr %38, align 1
  %40 = sext i8 %39 to i32
  %41 = icmp eq i32 %40, 47
  br i1 %41, label %42, label %56

42:                                               ; preds = %35
  %43 = load i32, ptr %6, align 4
  %44 = icmp ne i32 %43, 0
  br i1 %44, label %45, label %46

45:                                               ; preds = %42
  br label %55

46:                                               ; preds = %42
  %47 = load ptr, ptr %2, align 8
  %48 = load i64, ptr %4, align 8
  %49 = getelementptr inbounds i8, ptr %47, i64 %48
  %50 = load i8, ptr %49, align 1
  %51 = load ptr, ptr %3, align 8
  %52 = load i64, ptr %5, align 8
  %53 = add i64 %52, 1
  store i64 %53, ptr %5, align 8
  %54 = getelementptr inbounds i8, ptr %51, i64 %52
  store i8 %50, ptr %54, align 1
  store i32 1, ptr %6, align 4
  br label %55

55:                                               ; preds = %46, %45
  br label %65

56:                                               ; preds = %35
  %57 = load ptr, ptr %2, align 8
  %58 = load i64, ptr %4, align 8
  %59 = getelementptr inbounds i8, ptr %57, i64 %58
  %60 = load i8, ptr %59, align 1
  %61 = load ptr, ptr %3, align 8
  %62 = load i64, ptr %5, align 8
  %63 = add i64 %62, 1
  store i64 %63, ptr %5, align 8
  %64 = getelementptr inbounds i8, ptr %61, i64 %62
  store i8 %60, ptr %64, align 1
  store i32 0, ptr %6, align 4
  br label %65

65:                                               ; preds = %56, %55
  %66 = load i64, ptr %4, align 8
  %67 = add i64 %66, 1
  store i64 %67, ptr %4, align 8
  br label %28

68:                                               ; preds = %28
  %69 = load ptr, ptr %3, align 8
  %70 = load i64, ptr %5, align 8
  %71 = getelementptr inbounds i8, ptr %69, i64 %70
  store i8 0, ptr %71, align 1
  %72 = load i64, ptr %5, align 8
  %73 = icmp ugt i64 %72, 1
  br i1 %73, label %74, label %82

74:                                               ; preds = %68
  %75 = load i32, ptr %6, align 4
  %76 = icmp ne i32 %75, 0
  br i1 %76, label %77, label %82

77:                                               ; preds = %74
  %78 = load ptr, ptr %3, align 8
  %79 = load i64, ptr %5, align 8
  %80 = sub i64 %79, 1
  %81 = getelementptr inbounds i8, ptr %78, i64 %80
  store i8 0, ptr %81, align 1
  br label %82

82:                                               ; preds = %77, %74, %68
  %83 = load ptr, ptr %3, align 8
  store ptr %83, ptr %7, align 8
  br label %84

84:                                               ; preds = %82, %24
  %85 = load ptr, ptr %7, align 8
  ret ptr %85
}