; Function Attrs: nounwind uwtable
define noalias ptr @H5G_normalize(ptr noundef %0) local_unnamed_addr #2 {
  %2 = tail call noalias ptr @H5MM_strdup(ptr noundef %0) #10
  %3 = icmp eq ptr %2, null
  br i1 %3, label %4, label %.preheader

4:                                                ; preds = %1
  %5 = load i64, ptr @H5E_RESOURCE_g, align 8
  %6 = load i64, ptr @H5E_NOSPACE_g, align 8
  %7 = tail call i32 (ptr, ptr, i32, i64, i64, ptr, ...) @H5E_printf_stack(ptr noundef nonnull @.str.1, ptr noundef nonnull @__func__.H5G_normalize, i32 noundef 149, i64 noundef %5, i64 noundef %6, ptr noundef nonnull @.str.2) #10
  br label %21

.preheader:                                       ; preds = %1, %13
  %.027 = phi i64 [ %14, %13 ], [ 0, %1 ]
  %.025 = phi i64 [ %.126, %13 ], [ 0, %1 ]
  %.024 = phi i32 [ %.1, %13 ], [ 0, %1 ]
  %8 = getelementptr inbounds i8, ptr %0, i64 %.027
  %9 = load i8, ptr %8, align 1
  switch i8 %9, label %.sink.split [
    i8 0, label %15
    i8 47, label %10
  ]

10:                                               ; preds = %.preheader
  %.not30 = icmp eq i32 %.024, 0
  br i1 %.not30, label %.sink.split, label %13

.sink.split:                                      ; preds = %.preheader, %10
  %.sink = phi i8 [ 47, %10 ], [ %9, %.preheader ]
  %.1.ph = phi i32 [ 1, %10 ], [ 0, %.preheader ]
  %11 = add i64 %.025, 1
  %12 = getelementptr inbounds i8, ptr %2, i64 %.025
  store i8 %.sink, ptr %12, align 1
  br label %13

13:                                               ; preds = %.sink.split, %10
  %.126 = phi i64 [ %.025, %10 ], [ %11, %.sink.split ]
  %.1 = phi i32 [ 1, %10 ], [ %.1.ph, %.sink.split ]
  %14 = add i64 %.027, 1
  br label %.preheader

15:                                               ; preds = %.preheader
  %16 = getelementptr inbounds i8, ptr %2, i64 %.025
  store i8 0, ptr %16, align 1
  %17 = icmp ugt i64 %.025, 1
  %18 = icmp ne i32 %.024, 0
  %or.cond = and i1 %17, %18
  br i1 %or.cond, label %19, label %21

19:                                               ; preds = %15
  %20 = getelementptr i8, ptr %16, i64 -1
  store i8 0, ptr %20, align 1
  br label %21

21:                                               ; preds = %15, %19, %4
  ret ptr %2
}